; ModuleID = '5/213.c'
source_filename = "5/213.c"
target datalayout = "e-m:e-p270:32:32-p271:32:32-p272:64:64-i64:64-f80:128-n8:16:32:64-S128"
target triple = "x86_64-pc-linux-gnu"

@.str = private unnamed_addr constant [4 x i8] c"%lf\00", align 1
@.str.1 = private unnamed_addr constant [5 x i8] c"%s%s\00", align 1
@.str.2 = private unnamed_addr constant [6 x i8] c"error\00", align 1
@.str.3 = private unnamed_addr constant [4 x i8] c"yes\00", align 1
@.str.4 = private unnamed_addr constant [3 x i8] c"no\00", align 1

; Function Attrs: noinline nounwind uwtable
define dso_local i32 @main() #0 {
  %1 = alloca i32, align 4
  %2 = alloca double, align 8
  %3 = alloca double, align 8
  %4 = alloca i32, align 4
  %5 = alloca i32, align 4
  %6 = alloca i32, align 4
  %7 = alloca [500 x i8], align 16
  %8 = alloca [500 x i8], align 16
  %9 = alloca i32, align 4
  %10 = alloca i32, align 4
  %11 = alloca i32, align 4
  store i32 0, i32* %1, align 4
  store i32 1, i32* %5, align 4
  %12 = call i32 (i8*, ...) @__isoc99_scanf(i8* getelementptr inbounds ([4 x i8], [4 x i8]* @.str, i64 0, i64 0), double* %2)
  %13 = getelementptr inbounds [500 x i8], [500 x i8]* %7, i64 0, i64 0
  %14 = getelementptr inbounds [500 x i8], [500 x i8]* %8, i64 0, i64 0
  %15 = call i32 (i8*, ...) @__isoc99_scanf(i8* getelementptr inbounds ([5 x i8], [5 x i8]* @.str.1, i64 0, i64 0), i8* %13, i8* %14)
  %16 = getelementptr inbounds [500 x i8], [500 x i8]* %7, i64 0, i64 0
  %17 = call i64 @strlen(i8* %16) #3
  %18 = trunc i64 %17 to i32
  store i32 %18, i32* %9, align 4
  %19 = getelementptr inbounds [500 x i8], [500 x i8]* %8, i64 0, i64 0
  %20 = call i64 @strlen(i8* %19) #3
  %21 = trunc i64 %20 to i32
  store i32 %21, i32* %10, align 4
  %22 = load i32, i32* %9, align 4
  %23 = load i32, i32* %10, align 4
  %24 = icmp ne i32 %22, %23
  br i1 %24, label %25, label %26

25:                                               ; preds = %0
  store i32 0, i32* %5, align 4
  br label %129

26:                                               ; preds = %0
  store i32 0, i32* %11, align 4
  store i32 0, i32* %4, align 4
  br label %27

27:                                               ; preds = %89, %26
  %28 = load i32, i32* %4, align 4
  %29 = load i32, i32* %9, align 4
  %30 = icmp slt i32 %28, %29
  br i1 %30, label %31, label %92

31:                                               ; preds = %27
  %32 = load i32, i32* %4, align 4
  %33 = sext i32 %32 to i64
  %34 = getelementptr inbounds [500 x i8], [500 x i8]* %7, i64 0, i64 %33
  %35 = load i8, i8* %34, align 1
  %36 = sext i8 %35 to i32
  %37 = icmp eq i32 %36, 65
  br i1 %37, label %59, label %38

38:                                               ; preds = %31
  %39 = load i32, i32* %4, align 4
  %40 = sext i32 %39 to i64
  %41 = getelementptr inbounds [500 x i8], [500 x i8]* %7, i64 0, i64 %40
  %42 = load i8, i8* %41, align 1
  %43 = sext i8 %42 to i32
  %44 = icmp eq i32 %43, 84
  br i1 %44, label %59, label %45

45:                                               ; preds = %38
  %46 = load i32, i32* %4, align 4
  %47 = sext i32 %46 to i64
  %48 = getelementptr inbounds [500 x i8], [500 x i8]* %7, i64 0, i64 %47
  %49 = load i8, i8* %48, align 1
  %50 = sext i8 %49 to i32
  %51 = icmp eq i32 %50, 67
  br i1 %51, label %59, label %52

52:                                               ; preds = %45
  %53 = load i32, i32* %4, align 4
  %54 = sext i32 %53 to i64
  %55 = getelementptr inbounds [500 x i8], [500 x i8]* %7, i64 0, i64 %54
  %56 = load i8, i8* %55, align 1
  %57 = sext i8 %56 to i32
  %58 = icmp eq i32 %57, 71
  br i1 %58, label %59, label %87

59:                                               ; preds = %52, %45, %38, %31
  %60 = load i32, i32* %4, align 4
  %61 = sext i32 %60 to i64
  %62 = getelementptr inbounds [500 x i8], [500 x i8]* %8, i64 0, i64 %61
  %63 = load i8, i8* %62, align 1
  %64 = sext i8 %63 to i32
  %65 = icmp eq i32 %64, 65
  br i1 %65, label %88, label %66

66:                                               ; preds = %59
  %67 = load i32, i32* %4, align 4
  %68 = sext i32 %67 to i64
  %69 = getelementptr inbounds [500 x i8], [500 x i8]* %8, i64 0, i64 %68
  %70 = load i8, i8* %69, align 1
  %71 = sext i8 %70 to i32
  %72 = icmp eq i32 %71, 84
  br i1 %72, label %88, label %73

73:                                               ; preds = %66
  %74 = load i32, i32* %4, align 4
  %75 = sext i32 %74 to i64
  %76 = getelementptr inbounds [500 x i8], [500 x i8]* %8, i64 0, i64 %75
  %77 = load i8, i8* %76, align 1
  %78 = sext i8 %77 to i32
  %79 = icmp eq i32 %78, 67
  br i1 %79, label %88, label %80

80:                                               ; preds = %73
  %81 = load i32, i32* %4, align 4
  %82 = sext i32 %81 to i64
  %83 = getelementptr inbounds [500 x i8], [500 x i8]* %8, i64 0, i64 %82
  %84 = load i8, i8* %83, align 1
  %85 = sext i8 %84 to i32
  %86 = icmp eq i32 %85, 71
  br i1 %86, label %88, label %87

87:                                               ; preds = %80, %52
  store i32 0, i32* %5, align 4
  br label %88

88:                                               ; preds = %87, %80, %73, %66, %59
  br label %89

89:                                               ; preds = %88
  %90 = load i32, i32* %4, align 4
  %91 = add nsw i32 %90, 1
  store i32 %91, i32* %4, align 4
  br label %27

92:                                               ; preds = %27
  store i32 0, i32* %4, align 4
  br label %93

93:                                               ; preds = %113, %92
  %94 = load i32, i32* %4, align 4
  %95 = load i32, i32* %9, align 4
  %96 = icmp slt i32 %94, %95
  br i1 %96, label %97, label %116

97:                                               ; preds = %93
  %98 = load i32, i32* %4, align 4
  %99 = sext i32 %98 to i64
  %100 = getelementptr inbounds [500 x i8], [500 x i8]* %7, i64 0, i64 %99
  %101 = load i8, i8* %100, align 1
  %102 = sext i8 %101 to i32
  %103 = load i32, i32* %4, align 4
  %104 = sext i32 %103 to i64
  %105 = getelementptr inbounds [500 x i8], [500 x i8]* %8, i64 0, i64 %104
  %106 = load i8, i8* %105, align 1
  %107 = sext i8 %106 to i32
  %108 = icmp eq i32 %102, %107
  br i1 %108, label %109, label %112

109:                                              ; preds = %97
  %110 = load i32, i32* %11, align 4
  %111 = add nsw i32 %110, 1
  store i32 %111, i32* %11, align 4
  br label %112

112:                                              ; preds = %109, %97
  br label %113

113:                                              ; preds = %112
  %114 = load i32, i32* %4, align 4
  %115 = add nsw i32 %114, 1
  store i32 %115, i32* %4, align 4
  br label %93

116:                                              ; preds = %93
  %117 = load i32, i32* %11, align 4
  %118 = sitofp i32 %117 to double
  %119 = fmul double 1.000000e+00, %118
  %120 = load i32, i32* %9, align 4
  %121 = sitofp i32 %120 to double
  %122 = fdiv double %119, %121
  store double %122, double* %3, align 8
  %123 = load double, double* %3, align 8
  %124 = load double, double* %2, align 8
  %125 = fcmp ogt double %123, %124
  br i1 %125, label %126, label %127

126:                                              ; preds = %116
  store i32 1, i32* %6, align 4
  br label %128

127:                                              ; preds = %116
  store i32 2, i32* %6, align 4
  br label %128

128:                                              ; preds = %127, %126
  br label %129

129:                                              ; preds = %128, %25
  %130 = load i32, i32* %5, align 4
  %131 = icmp eq i32 %130, 0
  br i1 %131, label %132, label %134

132:                                              ; preds = %129
  %133 = call i32 (i8*, ...) @printf(i8* getelementptr inbounds ([6 x i8], [6 x i8]* @.str.2, i64 0, i64 0))
  br label %152

134:                                              ; preds = %129
  %135 = load i32, i32* %5, align 4
  %136 = icmp eq i32 %135, 1
  br i1 %136, label %137, label %142

137:                                              ; preds = %134
  %138 = load i32, i32* %6, align 4
  %139 = icmp eq i32 %138, 1
  br i1 %139, label %140, label %142

140:                                              ; preds = %137
  %141 = call i32 (i8*, ...) @printf(i8* getelementptr inbounds ([4 x i8], [4 x i8]* @.str.3, i64 0, i64 0))
  br label %151

142:                                              ; preds = %137, %134
  %143 = load i32, i32* %5, align 4
  %144 = icmp eq i32 %143, 1
  br i1 %144, label %145, label %150

145:                                              ; preds = %142
  %146 = load i32, i32* %6, align 4
  %147 = icmp eq i32 %146, 2
  br i1 %147, label %148, label %150

148:                                              ; preds = %145
  %149 = call i32 (i8*, ...) @printf(i8* getelementptr inbounds ([3 x i8], [3 x i8]* @.str.4, i64 0, i64 0))
  br label %150

150:                                              ; preds = %148, %145, %142
  br label %151

151:                                              ; preds = %150, %140
  br label %152

152:                                              ; preds = %151, %132
  ret i32 0
}

declare dso_local i32 @__isoc99_scanf(i8*, ...) #1

; Function Attrs: nounwind readonly
declare dso_local i64 @strlen(i8*) #2

declare dso_local i32 @printf(i8*, ...) #1


!llvm.module.flags = !{!0}
!llvm.ident = !{!1}

!0 = !{i32 1, !"wchar_size", i32 4}
!1 = !{!"clang version 10.0.0-4ubuntu1 "}
